target datalayout = "e-m:e-p270:32:32-p271:32:32-p272:64:64-i64:64-i128:128-f80:128-n8:16:32:64-S128"
target triple = "x86_64-pc-linux-gnu"

%struct._exr_decode_pipeline = type { i64, ptr, i16, i16, i32, ptr, %struct.exr_chunk_info_t, i32, i32, i64, ptr, ptr, i64, ptr, i64, ptr, i64, ptr, i64, ptr, i64, ptr, i64, ptr, ptr, ptr, ptr, ptr, ptr, [5 x %struct.exr_coding_channel_info_t] }
%struct.exr_chunk_info_t = type { i32, i32, i32, i32, i32, i8, i8, i8, i8, i64, i64, i64, i64, i64 }
%struct.exr_coding_channel_info_t = type { ptr, i32, i32, i32, i32, i8, i8, i16, i16, i16, i32, i32, %union.anon }
%union.anon = type { ptr }
%struct._priv_exr_context_t = type { i8, i8, i8, i8, i8, i8, i8, i8, %struct.exr_attr_string_t, %struct.exr_attr_string_t, ptr, ptr, ptr, ptr, ptr, ptr, ptr, ptr, i32, i32, i32, i32, i32, float, ptr, ptr, ptr, i64, ptr, ptr, i64, i32, i32, i32, i32, %struct._priv_exr_part_t, ptr, ptr, %struct.exr_attribute_list, %union.pthread_mutex_t, i8, i8, [2 x i8], i32 }
%struct.exr_attr_string_t = type { i32, i32, ptr }
%struct._priv_exr_part_t = type { i32, i32, %struct.exr_attribute_list, ptr, ptr, ptr, ptr, ptr, ptr, ptr, ptr, ptr, ptr, ptr, ptr, ptr, ptr, %struct.exr_attr_box2i_t, %struct.exr_attr_box2i_t, i32, i32, i32, float, i32, i32, ptr, ptr, ptr, ptr, i64, i16, i16, i32, i64, i64 }
%struct.exr_attr_box2i_t = type { %struct.exr_attr_v2i_t, %struct.exr_attr_v2i_t }
%struct.exr_attr_v2i_t = type { i32, i32 }
%struct.exr_attribute_list = type { i32, i32, ptr, ptr }
%union.pthread_mutex_t = type { %struct.__pthread_mutex_s }
%struct.__pthread_mutex_s = type { i32, i32, i32, i32, i32, i16, i16, %struct.__pthread_internal_list }
%struct.__pthread_internal_list = type { ptr, ptr }

@.str.14 = private unnamed_addr constant [27 x i8] c"Corrupt sample count table\00", align 1

; Function Attrs: inlinehint nounwind uwtable
define internal i32 @__uint32_identity(i32 noundef %0) #5 {
  %2 = alloca i32, align 4
  store i32 %0, ptr %2, align 4, !tbaa !8
  %3 = load i32, ptr %2, align 4, !tbaa !8
  ret i32 %3
}

; Function Attrs: inlinehint nounwind uwtable
define internal i32 @one_to_native32(i32 noundef %0) #5 {
  %2 = alloca i32, align 4
  store i32 %0, ptr %2, align 4, !tbaa !8
  %3 = load i32, ptr %2, align 4, !tbaa !8
  %4 = call i32 @__uint32_identity(i32 noundef %3)
  ret i32 %4
}

; Function Attrs: nounwind uwtable
define internal i32 @unpack_sample_table(ptr noundef %0, ptr noundef %1) #0 {
  %3 = alloca i32, align 4
  %4 = alloca ptr, align 8
  %5 = alloca ptr, align 8
  %6 = alloca i32, align 4
  %7 = alloca i32, align 4
  %8 = alloca i32, align 4
  %9 = alloca i64, align 8
  %10 = alloca ptr, align 8
  %11 = alloca i64, align 8
  %12 = alloca i32, align 4
  %13 = alloca i32, align 4
  %14 = alloca i32, align 4
  %15 = alloca ptr, align 8
  %16 = alloca i32, align 4
  %17 = alloca i32, align 4
  %18 = alloca i32, align 4
  %19 = alloca i32, align 4
  %20 = alloca ptr, align 8
  %21 = alloca i32, align 4
  %22 = alloca i32, align 4
  %23 = alloca i32, align 4
  store ptr %0, ptr %4, align 8, !tbaa !3
  store ptr %1, ptr %5, align 8, !tbaa !11
  call void @llvm.lifetime.start.p0(i64 4, ptr %6) #6
  store i32 0, ptr %6, align 4, !tbaa !8
  call void @llvm.lifetime.start.p0(i64 4, ptr %7) #6
  %24 = load ptr, ptr %5, align 8, !tbaa !11
  %25 = getelementptr inbounds nuw %struct._exr_decode_pipeline, ptr %24, i32 0, i32 6
  %26 = getelementptr inbounds nuw %struct.exr_chunk_info_t, ptr %25, i32 0, i32 4
  %27 = load i32, ptr %26, align 8, !tbaa !86
  store i32 %27, ptr %7, align 4, !tbaa !8
  call void @llvm.lifetime.start.p0(i64 4, ptr %8) #6
  %28 = load ptr, ptr %5, align 8, !tbaa !11
  %29 = getelementptr inbounds nuw %struct._exr_decode_pipeline, ptr %28, i32 0, i32 6
  %30 = getelementptr inbounds nuw %struct.exr_chunk_info_t, ptr %29, i32 0, i32 3
  %31 = load i32, ptr %30, align 4, !tbaa !72
  store i32 %31, ptr %8, align 4, !tbaa !8
  call void @llvm.lifetime.start.p0(i64 8, ptr %9) #6
  store i64 0, ptr %9, align 8, !tbaa !32
  call void @llvm.lifetime.start.p0(i64 8, ptr %10) #6
  %32 = load ptr, ptr %5, align 8, !tbaa !11
  %33 = getelementptr inbounds nuw %struct._exr_decode_pipeline, ptr %32, i32 0, i32 17
  %34 = load ptr, ptr %33, align 8, !tbaa !85
  store ptr %34, ptr %10, align 8, !tbaa !35
  call void @llvm.lifetime.start.p0(i64 8, ptr %11) #6
  store i64 0, ptr %11, align 8, !tbaa !32
  call void @llvm.lifetime.start.p0(i64 4, ptr %12) #6
  store i32 0, ptr %12, align 4, !tbaa !8
  br label %35

35:                                               ; preds = %55, %2
  %36 = load i32, ptr %12, align 4, !tbaa !8
  %37 = load ptr, ptr %5, align 8, !tbaa !11
  %38 = getelementptr inbounds nuw %struct._exr_decode_pipeline, ptr %37, i32 0, i32 2
  %39 = load i16, ptr %38, align 8, !tbaa !51
  %40 = sext i16 %39 to i32
  %41 = icmp slt i32 %36, %40
  br i1 %41, label %43, label %42

42:                                               ; preds = %35
  call void @llvm.lifetime.end.p0(i64 4, ptr %12) #6
  br label %58

43:                                               ; preds = %35
  %44 = load ptr, ptr %5, align 8, !tbaa !11
  %45 = getelementptr inbounds nuw %struct._exr_decode_pipeline, ptr %44, i32 0, i32 1
  %46 = load ptr, ptr %45, align 8, !tbaa !52
  %47 = load i32, ptr %12, align 4, !tbaa !8
  %48 = sext i32 %47 to i64
  %49 = getelementptr inbounds %struct.exr_coding_channel_info_t, ptr %46, i64 %48
  %50 = getelementptr inbounds nuw %struct.exr_coding_channel_info_t, ptr %49, i32 0, i32 6
  %51 = load i8, ptr %50, align 1, !tbaa !59
  %52 = sext i8 %51 to i64
  %53 = load i64, ptr %11, align 8, !tbaa !32
  %54 = add i64 %53, %52
  store i64 %54, ptr %11, align 8, !tbaa !32
  br label %55

55:                                               ; preds = %43
  %56 = load i32, ptr %12, align 4, !tbaa !8
  %57 = add nsw i32 %56, 1
  store i32 %57, ptr %12, align 4, !tbaa !8
  br label %35, !llvm.loop !91

58:                                               ; preds = %42
  %59 = load ptr, ptr %5, align 8, !tbaa !11
  %60 = getelementptr inbounds nuw %struct._exr_decode_pipeline, ptr %59, i32 0, i32 3
  %61 = load i16, ptr %60, align 2, !tbaa !82
  %62 = zext i16 %61 to i32
  %63 = and i32 %62, 1
  %64 = icmp ne i32 %63, 0
  br i1 %64, label %65, label %137

65:                                               ; preds = %58
  call void @llvm.lifetime.start.p0(i64 4, ptr %13) #6
  store i32 0, ptr %13, align 4, !tbaa !8
  br label %66

66:                                               ; preds = %119, %65
  %67 = load i32, ptr %13, align 4, !tbaa !8
  %68 = load i32, ptr %8, align 4, !tbaa !8
  %69 = icmp slt i32 %67, %68
  br i1 %69, label %71, label %70

70:                                               ; preds = %66
  store i32 5, ptr %14, align 4
  br label %122

71:                                               ; preds = %66
  call void @llvm.lifetime.start.p0(i64 8, ptr %15) #6
  %72 = load ptr, ptr %10, align 8, !tbaa !35
  %73 = load i32, ptr %13, align 4, !tbaa !8
  %74 = load i32, ptr %7, align 4, !tbaa !8
  %75 = mul nsw i32 %73, %74
  %76 = sext i32 %75 to i64
  %77 = getelementptr inbounds i32, ptr %72, i64 %76
  store ptr %77, ptr %15, align 8, !tbaa !35
  call void @llvm.lifetime.start.p0(i64 4, ptr %16) #6
  store i32 0, ptr %16, align 4, !tbaa !8
  call void @llvm.lifetime.start.p0(i64 4, ptr %17) #6
  store i32 0, ptr %17, align 4, !tbaa !8
  br label %78

78:                                               ; preds = %106, %71
  %79 = load i32, ptr %17, align 4, !tbaa !8
  %80 = load i32, ptr %7, align 4, !tbaa !8
  %81 = icmp slt i32 %79, %80
  br i1 %81, label %83, label %82

82:                                               ; preds = %78
  store i32 8, ptr %14, align 4
  br label %109

83:                                               ; preds = %78
  call void @llvm.lifetime.start.p0(i64 4, ptr %18) #6
  %84 = load ptr, ptr %15, align 8, !tbaa !35
  %85 = load i32, ptr %17, align 4, !tbaa !8
  %86 = sext i32 %85 to i64
  %87 = getelementptr inbounds i32, ptr %84, i64 %86
  %88 = load i32, ptr %87, align 4, !tbaa !8
  %89 = call i32 @one_to_native32(i32 noundef %88)
  store i32 %89, ptr %18, align 4, !tbaa !8
  %90 = load i32, ptr %18, align 4, !tbaa !8
  %91 = load i32, ptr %16, align 4, !tbaa !8
  %92 = icmp slt i32 %90, %91
  br i1 %92, label %93, label %94

93:                                               ; preds = %83
  store i32 31, ptr %3, align 4
  store i32 1, ptr %14, align 4
  br label %103

94:                                               ; preds = %83
  %95 = load i32, ptr %18, align 4, !tbaa !8
  %96 = load i32, ptr %16, align 4, !tbaa !8
  %97 = sub nsw i32 %95, %96
  %98 = load ptr, ptr %15, align 8, !tbaa !35
  %99 = load i32, ptr %17, align 4, !tbaa !8
  %100 = sext i32 %99 to i64
  %101 = getelementptr inbounds i32, ptr %98, i64 %100
  store i32 %97, ptr %101, align 4, !tbaa !8
  %102 = load i32, ptr %18, align 4, !tbaa !8
  store i32 %102, ptr %16, align 4, !tbaa !8
  store i32 0, ptr %14, align 4
  br label %103

103:                                              ; preds = %94, %93
  call void @llvm.lifetime.end.p0(i64 4, ptr %18) #6
  %104 = load i32, ptr %14, align 4
  switch i32 %104, label %109 [
    i32 0, label %105
  ]

105:                                              ; preds = %103
  br label %106

106:                                              ; preds = %105
  %107 = load i32, ptr %17, align 4, !tbaa !8
  %108 = add nsw i32 %107, 1
  store i32 %108, ptr %17, align 4, !tbaa !8
  br label %78, !llvm.loop !92

109:                                              ; preds = %103, %82
  call void @llvm.lifetime.end.p0(i64 4, ptr %17) #6
  %110 = load i32, ptr %14, align 4
  switch i32 %110, label %116 [
    i32 8, label %111
  ]

111:                                              ; preds = %109
  %112 = load i32, ptr %16, align 4, !tbaa !8
  %113 = sext i32 %112 to i64
  %114 = load i64, ptr %9, align 8, !tbaa !32
  %115 = add i64 %114, %113
  store i64 %115, ptr %9, align 8, !tbaa !32
  store i32 0, ptr %14, align 4
  br label %116

116:                                              ; preds = %111, %109
  call void @llvm.lifetime.end.p0(i64 4, ptr %16) #6
  call void @llvm.lifetime.end.p0(i64 8, ptr %15) #6
  %117 = load i32, ptr %14, align 4
  switch i32 %117, label %122 [
    i32 0, label %118
  ]

118:                                              ; preds = %116
  br label %119

119:                                              ; preds = %118
  %120 = load i32, ptr %13, align 4, !tbaa !8
  %121 = add nsw i32 %120, 1
  store i32 %121, ptr %13, align 4, !tbaa !8
  br label %66, !llvm.loop !93

122:                                              ; preds = %116, %70
  call void @llvm.lifetime.end.p0(i64 4, ptr %13) #6
  %123 = load i32, ptr %14, align 4
  switch i32 %123, label %216 [
    i32 5, label %124
  ]

124:                                              ; preds = %122
  %125 = load i64, ptr %9, align 8, !tbaa !32
  %126 = icmp uge i64 %125, 2147483647
  br i1 %126, label %127, label %128

127:                                              ; preds = %124
  store i32 31, ptr %3, align 4
  store i32 1, ptr %14, align 4
  br label %216

128:                                              ; preds = %124
  %129 = load i64, ptr %9, align 8, !tbaa !32
  %130 = trunc i64 %129 to i32
  %131 = load ptr, ptr %10, align 8, !tbaa !35
  %132 = load i32, ptr %7, align 4, !tbaa !8
  %133 = load i32, ptr %8, align 4, !tbaa !8
  %134 = mul nsw i32 %132, %133
  %135 = sext i32 %134 to i64
  %136 = getelementptr inbounds i32, ptr %131, i64 %135
  store i32 %130, ptr %136, align 4, !tbaa !8
  br label %199

137:                                              ; preds = %58
  call void @llvm.lifetime.start.p0(i64 4, ptr %19) #6
  store i32 0, ptr %19, align 4, !tbaa !8
  br label %138

138:                                              ; preds = %189, %137
  %139 = load i32, ptr %19, align 4, !tbaa !8
  %140 = load i32, ptr %8, align 4, !tbaa !8
  %141 = icmp slt i32 %139, %140
  br i1 %141, label %143, label %142

142:                                              ; preds = %138
  store i32 11, ptr %14, align 4
  br label %192

143:                                              ; preds = %138
  call void @llvm.lifetime.start.p0(i64 8, ptr %20) #6
  %144 = load ptr, ptr %10, align 8, !tbaa !35
  %145 = load i32, ptr %19, align 4, !tbaa !8
  %146 = load i32, ptr %7, align 4, !tbaa !8
  %147 = mul nsw i32 %145, %146
  %148 = sext i32 %147 to i64
  %149 = getelementptr inbounds i32, ptr %144, i64 %148
  store ptr %149, ptr %20, align 8, !tbaa !35
  call void @llvm.lifetime.start.p0(i64 4, ptr %21) #6
  store i32 0, ptr %21, align 4, !tbaa !8
  call void @llvm.lifetime.start.p0(i64 4, ptr %22) #6
  store i32 0, ptr %22, align 4, !tbaa !8
  br label %150

150:                                              ; preds = %176, %143
  %151 = load i32, ptr %22, align 4, !tbaa !8
  %152 = load i32, ptr %7, align 4, !tbaa !8
  %153 = icmp slt i32 %151, %152
  br i1 %153, label %155, label %154

154:                                              ; preds = %150
  store i32 14, ptr %14, align 4
  br label %179

155:                                              ; preds = %150
  call void @llvm.lifetime.start.p0(i64 4, ptr %23) #6
  %156 = load ptr, ptr %20, align 8, !tbaa !35
  %157 = load i32, ptr %22, align 4, !tbaa !8
  %158 = sext i32 %157 to i64
  %159 = getelementptr inbounds i32, ptr %156, i64 %158
  %160 = load i32, ptr %159, align 4, !tbaa !8
  %161 = call i32 @one_to_native32(i32 noundef %160)
  store i32 %161, ptr %23, align 4, !tbaa !8
  %162 = load i32, ptr %23, align 4, !tbaa !8
  %163 = load i32, ptr %21, align 4, !tbaa !8
  %164 = icmp slt i32 %162, %163
  br i1 %164, label %165, label %166

165:                                              ; preds = %155
  store i32 31, ptr %3, align 4
  store i32 1, ptr %14, align 4
  br label %173

166:                                              ; preds = %155
  %167 = load i32, ptr %23, align 4, !tbaa !8
  %168 = load ptr, ptr %20, align 8, !tbaa !35
  %169 = load i32, ptr %22, align 4, !tbaa !8
  %170 = sext i32 %169 to i64
  %171 = getelementptr inbounds i32, ptr %168, i64 %170
  store i32 %167, ptr %171, align 4, !tbaa !8
  %172 = load i32, ptr %23, align 4, !tbaa !8
  store i32 %172, ptr %21, align 4, !tbaa !8
  store i32 0, ptr %14, align 4
  br label %173

173:                                              ; preds = %166, %165
  call void @llvm.lifetime.end.p0(i64 4, ptr %23) #6
  %174 = load i32, ptr %14, align 4
  switch i32 %174, label %179 [
    i32 0, label %175
  ]

175:                                              ; preds = %173
  br label %176

176:                                              ; preds = %175
  %177 = load i32, ptr %22, align 4, !tbaa !8
  %178 = add nsw i32 %177, 1
  store i32 %178, ptr %22, align 4, !tbaa !8
  br label %150, !llvm.loop !94

179:                                              ; preds = %173, %154
  call void @llvm.lifetime.end.p0(i64 4, ptr %22) #6
  %180 = load i32, ptr %14, align 4
  switch i32 %180, label %186 [
    i32 14, label %181
  ]

181:                                              ; preds = %179
  %182 = load i32, ptr %21, align 4, !tbaa !8
  %183 = sext i32 %182 to i64
  %184 = load i64, ptr %9, align 8, !tbaa !32
  %185 = add i64 %184, %183
  store i64 %185, ptr %9, align 8, !tbaa !32
  store i32 0, ptr %14, align 4
  br label %186

186:                                              ; preds = %181, %179
  call void @llvm.lifetime.end.p0(i64 4, ptr %21) #6
  call void @llvm.lifetime.end.p0(i64 8, ptr %20) #6
  %187 = load i32, ptr %14, align 4
  switch i32 %187, label %192 [
    i32 0, label %188
  ]

188:                                              ; preds = %186
  br label %189

189:                                              ; preds = %188
  %190 = load i32, ptr %19, align 4, !tbaa !8
  %191 = add nsw i32 %190, 1
  store i32 %191, ptr %19, align 4, !tbaa !8
  br label %138, !llvm.loop !95

192:                                              ; preds = %186, %142
  call void @llvm.lifetime.end.p0(i64 4, ptr %19) #6
  %193 = load i32, ptr %14, align 4
  switch i32 %193, label %216 [
    i32 11, label %194
  ]

194:                                              ; preds = %192
  %195 = load i64, ptr %9, align 8, !tbaa !32
  %196 = icmp uge i64 %195, 2147483647
  br i1 %196, label %197, label %198

197:                                              ; preds = %194
  store i32 31, ptr %3, align 4
  store i32 1, ptr %14, align 4
  br label %216

198:                                              ; preds = %194
  br label %199

199:                                              ; preds = %198, %128
  %200 = load i64, ptr %9, align 8, !tbaa !32
  %201 = load i64, ptr %11, align 8, !tbaa !32
  %202 = mul i64 %200, %201
  %203 = load ptr, ptr %5, align 8, !tbaa !11
  %204 = getelementptr inbounds nuw %struct._exr_decode_pipeline, ptr %203, i32 0, i32 6
  %205 = getelementptr inbounds nuw %struct.exr_chunk_info_t, ptr %204, i32 0, i32 11
  %206 = load i64, ptr %205, align 8, !tbaa !89
  %207 = icmp ugt i64 %202, %206
  br i1 %207, label %208, label %214

208:                                              ; preds = %199
  %209 = load ptr, ptr %4, align 8, !tbaa !3
  %210 = getelementptr inbounds nuw %struct._priv_exr_context_t, ptr %209, i32 0, i32 13
  %211 = load ptr, ptr %210, align 8, !tbaa !70
  %212 = load ptr, ptr %4, align 8, !tbaa !3
  %213 = call i32 %211(ptr noundef %212, i32 noundef 31, ptr noundef @.str.14)
  store i32 %213, ptr %6, align 4, !tbaa !8
  br label %214

214:                                              ; preds = %208, %199
  %215 = load i32, ptr %6, align 4, !tbaa !8
  store i32 %215, ptr %3, align 4
  store i32 1, ptr %14, align 4
  br label %216

216:                                              ; preds = %214, %197, %192, %127, %122
  call void @llvm.lifetime.end.p0(i64 8, ptr %11) #6
  call void @llvm.lifetime.end.p0(i64 8, ptr %10) #6
  call void @llvm.lifetime.end.p0(i64 8, ptr %9) #6
  call void @llvm.lifetime.end.p0(i64 4, ptr %8) #6
  call void @llvm.lifetime.end.p0(i64 4, ptr %7) #6
  call void @llvm.lifetime.end.p0(i64 4, ptr %6) #6
  %217 = load i32, ptr %3, align 4
  ret i32 %217
}