; Function Attrs: nounwind uwtable
define internal fastcc i32 @unpack_sample_table(ptr noundef nonnull %0, ptr noundef nonnull readonly captures(none) %1) unnamed_addr #0 {
  %3 = getelementptr inbounds nuw i8, ptr %1, i64 48
  %4 = load i32, ptr %3, align 8, !tbaa !78
  %5 = getelementptr inbounds nuw i8, ptr %1, i64 44
  %6 = load i32, ptr %5, align 4, !tbaa !64
  %7 = getelementptr inbounds nuw i8, ptr %1, i64 168
  %8 = load ptr, ptr %7, align 8, !tbaa !77
  %9 = getelementptr inbounds nuw i8, ptr %1, i64 16
  %10 = load i16, ptr %9, align 8, !tbaa !43
  %11 = icmp sgt i16 %10, 0
  br i1 %11, label %.lr.ph, label %._crit_edge

.lr.ph:                                           ; preds = %2
  %wide.trip.count = zext nneg i16 %10 to i64
  %12 = getelementptr inbounds nuw i8, ptr %1, i64 8
  %13 = load ptr, ptr %12, align 8, !tbaa !44
  br label %36

._crit_edge:                                      ; preds = %36, %2
  %.093.lcssa = phi i64 [ 0, %2 ], [ %40, %36 ]
  %14 = getelementptr inbounds nuw i8, ptr %1, i64 18
  %15 = load i16, ptr %14, align 2, !tbaa !74
  %16 = and i16 %15, 1
  %.not = icmp eq i16 %16, 0
  %.not108161 = icmp sgt i32 %6, 0
  %.not107.not154 = icmp sgt i32 %4, 0
  %or.cond217 = select i1 %.not108161, i1 %.not107.not154, i1 false
  br i1 %.not, label %.preheader, label %.preheader123

.preheader123:                                    ; preds = %._crit_edge
  br i1 %or.cond217, label %.lr.ph141.us.preheader, label %.thread114

.lr.ph141.us.preheader:                           ; preds = %.preheader123
  %17 = zext nneg i32 %4 to i64
  %wide.trip.count192 = zext nneg i32 %6 to i64
  br label %.lr.ph141.us

.lr.ph141.us:                                     ; preds = %.lr.ph141.us.preheader, %._crit_edge142.us
  %indvars.iv189 = phi i64 [ 0, %.lr.ph141.us.preheader ], [ %indvars.iv.next190, %._crit_edge142.us ]
  %.082146.us = phi i64 [ 0, %.lr.ph141.us.preheader ], [ %26, %._crit_edge142.us ]
  %18 = mul nuw nsw i64 %indvars.iv189, %17
  %19 = getelementptr inbounds nuw i32, ptr %8, i64 %18
  br label %20

20:                                               ; preds = %.lr.ph141.us, %23
  %indvars.iv184 = phi i64 [ 0, %.lr.ph141.us ], [ %indvars.iv.next185, %23 ]
  %.090138.us = phi i32 [ 0, %.lr.ph141.us ], [ %22, %23 ]
  %21 = getelementptr inbounds nuw i32, ptr %19, i64 %indvars.iv184
  %22 = load i32, ptr %21, align 4, !tbaa !40
  %.not109.us = icmp slt i32 %22, %.090138.us
  br i1 %.not109.us, label %.thread114.thread, label %23

23:                                               ; preds = %20
  %24 = sub nsw i32 %22, %.090138.us
  store i32 %24, ptr %21, align 4, !tbaa !40
  %indvars.iv.next185 = add nuw nsw i64 %indvars.iv184, 1
  %exitcond188.not = icmp eq i64 %indvars.iv.next185, %17
  br i1 %exitcond188.not, label %._crit_edge142.us, label %20, !llvm.loop !83

._crit_edge142.us:                                ; preds = %23
  %25 = zext nneg i32 %22 to i64
  %26 = add i64 %.082146.us, %25
  %indvars.iv.next190 = add nuw nsw i64 %indvars.iv189, 1
  %exitcond193.not = icmp eq i64 %indvars.iv.next190, %wide.trip.count192
  br i1 %exitcond193.not, label %.thread114, label %.lr.ph141.us, !llvm.loop !84

.preheader:                                       ; preds = %._crit_edge
  br i1 %or.cond217, label %.lr.ph158.us.preheader, label %.thread119

.lr.ph158.us.preheader:                           ; preds = %.preheader
  %27 = zext nneg i32 %4 to i64
  %wide.trip.count202 = zext nneg i32 %6 to i64
  br label %.lr.ph158.us

.lr.ph158.us:                                     ; preds = %.lr.ph158.us.preheader, %._crit_edge159.us
  %indvars.iv199 = phi i64 [ 0, %.lr.ph158.us.preheader ], [ %indvars.iv.next200, %._crit_edge159.us ]
  %.486162.us = phi i64 [ 0, %.lr.ph158.us.preheader ], [ %35, %._crit_edge159.us ]
  %28 = mul nuw nsw i64 %indvars.iv199, %27
  %29 = getelementptr inbounds nuw i32, ptr %8, i64 %28
  br label %31

30:                                               ; preds = %31
  %indvars.iv.next195 = add nuw nsw i64 %indvars.iv194, 1
  %exitcond198.not = icmp eq i64 %indvars.iv.next195, %27
  br i1 %exitcond198.not, label %._crit_edge159.us, label %31, !llvm.loop !85

31:                                               ; preds = %.lr.ph158.us, %30
  %indvars.iv194 = phi i64 [ 0, %.lr.ph158.us ], [ %indvars.iv.next195, %30 ]
  %.077155.us = phi i32 [ 0, %.lr.ph158.us ], [ %33, %30 ]
  %32 = getelementptr inbounds nuw i32, ptr %29, i64 %indvars.iv194
  %33 = load i32, ptr %32, align 4, !tbaa !40
  %.not106.us = icmp slt i32 %33, %.077155.us
  br i1 %.not106.us, label %.thread114.thread, label %30

._crit_edge159.us:                                ; preds = %30
  %34 = zext nneg i32 %33 to i64
  %35 = add i64 %.486162.us, %34
  %indvars.iv.next200 = add nuw nsw i64 %indvars.iv199, 1
  %exitcond203.not = icmp eq i64 %indvars.iv.next200, %wide.trip.count202
  br i1 %exitcond203.not, label %.thread119, label %.lr.ph158.us, !llvm.loop !86

36:                                               ; preds = %.lr.ph, %36
  %indvars.iv = phi i64 [ 0, %.lr.ph ], [ %indvars.iv.next, %36 ]
  %.093136 = phi i64 [ 0, %.lr.ph ], [ %40, %36 ]
  %37 = getelementptr inbounds nuw %struct.exr_coding_channel_info_t, ptr %13, i64 %indvars.iv, i32 6
  %38 = load i8, ptr %37, align 1, !tbaa !51
  %39 = sext i8 %38 to i64
  %40 = add i64 %.093136, %39
  %indvars.iv.next = add nuw nsw i64 %indvars.iv, 1
  %exitcond.not = icmp eq i64 %indvars.iv.next, %wide.trip.count
  br i1 %exitcond.not, label %._crit_edge, label %36, !llvm.loop !87

.thread114:                                       ; preds = %._crit_edge142.us, %.preheader123
  %.082134 = phi i64 [ 0, %.preheader123 ], [ %26, %._crit_edge142.us ]
  %41 = icmp ugt i64 %.082134, 2147483646
  br i1 %41, label %.thread114.thread, label %42

42:                                               ; preds = %.thread114
  %43 = trunc nuw nsw i64 %.082134 to i32
  %44 = mul nsw i32 %6, %4
  %45 = sext i32 %44 to i64
  %46 = getelementptr inbounds i32, ptr %8, i64 %45
  store i32 %43, ptr %46, align 4, !tbaa !40
  br label %48

.thread119:                                       ; preds = %._crit_edge159.us, %.preheader
  %.486129 = phi i64 [ 0, %.preheader ], [ %35, %._crit_edge159.us ]
  %47 = icmp ugt i64 %.486129, 2147483646
  br i1 %47, label %.thread114.thread, label %48

48:                                               ; preds = %.thread119, %42
  %.385 = phi i64 [ %.082134, %42 ], [ %.486129, %.thread119 ]
  %49 = mul i64 %.385, %.093.lcssa
  %50 = getelementptr inbounds nuw i8, ptr %1, i64 72
  %51 = load i64, ptr %50, align 8, !tbaa !81
  %52 = icmp ugt i64 %49, %51
  br i1 %52, label %53, label %.thread114.thread

53:                                               ; preds = %48
  %54 = getelementptr inbounds nuw i8, ptr %0, i64 64
  %55 = load ptr, ptr %54, align 8, !tbaa !62
  %56 = tail call i32 %55(ptr noundef nonnull %0, i32 noundef 31, ptr noundef nonnull @.str.14) #5
  br label %.thread114.thread

.thread114.thread:                                ; preds = %20, %31, %48, %53, %.thread114, %.thread119
  %.5 = phi i32 [ 31, %.thread114 ], [ 31, %.thread119 ], [ %56, %53 ], [ 0, %48 ], [ 31, %31 ], [ 31, %20 ]
  ret i32 %.5
}